target datalayout = "e-m:e-p270:32:32-p271:32:32-p272:64:64-i64:64-i128:128-f80:128-n8:16:32:64-S128"
target triple = "x86_64-pc-linux-gnu"

%struct.prte_mca_plm_ssh_component_t = type { %struct.pmix_mca_base_component_2_1_0_t, i8, i8, i8, i8, i8, i8, i8, %struct.timespec, i32, i8, i32, ptr, ptr, ptr, i8, i8, ptr, ptr, ptr }
%struct.pmix_mca_base_component_2_1_0_t = type { i32, i32, i32, [16 x i8], i32, i32, i32, [32 x i8], i32, i32, i32, [64 x i8], i32, i32, i32, ptr, ptr, ptr, ptr, [32 x i8] }
%struct.timespec = type { i64, i64 }
%struct.pmix_mca_base_framework_t = type { ptr, ptr, ptr, ptr, ptr, ptr, i32, i32, ptr, ptr, i32, i32, %struct.pmix_list_t, %struct.pmix_list_t }
%struct.pmix_list_t = type { %struct.pmix_object_t, %struct.pmix_list_item_t, i64 }
%struct.pmix_object_t = type { %union.pthread_mutex_t, ptr, i32, %struct.pmix_tma }
%union.pthread_mutex_t = type { %struct.__pthread_mutex_s }
%struct.__pthread_mutex_s = type { i32, i32, i32, i32, i32, i16, i16, %struct.__pthread_internal_list }
%struct.__pthread_internal_list = type { ptr, ptr }
%struct.pmix_tma = type { ptr, ptr, ptr, ptr, ptr, ptr, ptr, ptr }
%struct.pmix_list_item_t = type { %struct.pmix_object_t, ptr, ptr, i32 }
%struct.pmix_output_desc_t = type { i8, i8, i32, i8, i32, ptr, ptr, i32, ptr, i32, i8, i8, i8, i8, ptr, i32, i32 }
%struct.prte_process_info_t = type { %struct.pmix_proc, %struct.pmix_proc, ptr, %struct.pmix_proc, i32, i32, i32, ptr, ptr, i32, i8, ptr, i16, ptr, ptr, i8, ptr, i8 }
%struct.pmix_proc = type { [256 x i8], i32 }
%struct.prte_plm_ssh_caddy_t = type { %struct.pmix_list_item_t, i32, ptr, ptr }
%struct.prte_proc_t = type { %struct.pmix_list_item_t, %struct.pmix_proc, i32, i32, i16, i16, i32, i16, i32, i32, i32, i32, ptr, ptr, ptr, ptr, i16, %struct.pmix_list_t }

@prte_mca_plm_ssh_component = external global %struct.prte_mca_plm_ssh_component_t, align 8
@.str.6 = private unnamed_addr constant [37 x i8] c"PRTE ERROR: %s in file %s at line %d\00", align 1
@.str.7 = private unnamed_addr constant [17 x i8] c"plm_ssh_module.c\00", align 1
@prte_plm_base_framework = external global %struct.pmix_mca_base_framework_t, align 8
@pmix_output_info = external global [0 x %struct.pmix_output_desc_t], align 8
@prte_process_info = external global %struct.prte_process_info_t, align 8
@launch_list = internal global %struct.pmix_list_t zeroinitializer, align 8
@num_in_progress = internal global i32 0, align 4
@.str.92 = private unnamed_addr constant [64 x i8] c"plm:ssh: Error: setpgid(0,0) failed in child with errno=%s(%d)\0A\00", align 1
@.str.93 = private unnamed_addr constant [71 x i8] c"plm:ssh: Warning: setpgid(%ld,%ld) failed in parent with errno=%s(%d)\0A\00", align 1
@.str.94 = private unnamed_addr constant [42 x i8] c"%s plm:ssh: recording launch of daemon %s\00", align 1

; Function Attrs: inlinehint nounwind uwtable
define internal ptr @pmix_list_remove_first(ptr noundef %0) #4 {
  %2 = alloca ptr, align 8
  %3 = alloca ptr, align 8
  %4 = alloca ptr, align 8
  %5 = alloca i32, align 4
  store ptr %0, ptr %3, align 8, !tbaa !167
  call void @llvm.lifetime.start.p0(i64 8, ptr %4) #13
  %6 = load ptr, ptr %3, align 8, !tbaa !167
  %7 = getelementptr inbounds nuw %struct.pmix_list_t, ptr %6, i32 0, i32 2
  %8 = load volatile i64, ptr %7, align 8, !tbaa !170
  %9 = icmp eq i64 0, %8
  br i1 %9, label %10, label %11

10:                                               ; preds = %1
  store ptr null, ptr %2, align 8
  store i32 1, ptr %5, align 4
  br label %34

11:                                               ; preds = %1
  %12 = load ptr, ptr %3, align 8, !tbaa !167
  %13 = getelementptr inbounds nuw %struct.pmix_list_t, ptr %12, i32 0, i32 2
  %14 = load volatile i64, ptr %13, align 8, !tbaa !170
  %15 = add i64 %14, -1
  store volatile i64 %15, ptr %13, align 8, !tbaa !170
  %16 = load ptr, ptr %3, align 8, !tbaa !167
  %17 = getelementptr inbounds nuw %struct.pmix_list_t, ptr %16, i32 0, i32 1
  %18 = getelementptr inbounds nuw %struct.pmix_list_item_t, ptr %17, i32 0, i32 1
  %19 = load ptr, ptr %18, align 8, !tbaa !182
  store ptr %19, ptr %4, align 8, !tbaa !86
  %20 = load ptr, ptr %4, align 8, !tbaa !86
  %21 = getelementptr inbounds nuw %struct.pmix_list_item_t, ptr %20, i32 0, i32 2
  %22 = load volatile ptr, ptr %21, align 8, !tbaa !169
  %23 = load ptr, ptr %4, align 8, !tbaa !86
  %24 = getelementptr inbounds nuw %struct.pmix_list_item_t, ptr %23, i32 0, i32 1
  %25 = load volatile ptr, ptr %24, align 8, !tbaa !78
  %26 = getelementptr inbounds nuw %struct.pmix_list_item_t, ptr %25, i32 0, i32 2
  store volatile ptr %22, ptr %26, align 8, !tbaa !169
  %27 = load ptr, ptr %4, align 8, !tbaa !86
  %28 = getelementptr inbounds nuw %struct.pmix_list_item_t, ptr %27, i32 0, i32 1
  %29 = load volatile ptr, ptr %28, align 8, !tbaa !78
  %30 = load ptr, ptr %3, align 8, !tbaa !167
  %31 = getelementptr inbounds nuw %struct.pmix_list_t, ptr %30, i32 0, i32 1
  %32 = getelementptr inbounds nuw %struct.pmix_list_item_t, ptr %31, i32 0, i32 1
  store ptr %29, ptr %32, align 8, !tbaa !182
  %33 = load ptr, ptr %4, align 8, !tbaa !86
  store ptr %33, ptr %2, align 8
  store i32 1, ptr %5, align 4
  br label %34

34:                                               ; preds = %11, %10
  call void @llvm.lifetime.end.p0(i64 8, ptr %4) #13
  %35 = load ptr, ptr %2, align 8
  ret ptr %35
}

; Function Attrs: inlinehint nounwind uwtable
define internal void @pmix_atomic_rmb() #4 {
  fence acquire
  ret void
}

; Function Attrs: nounwind uwtable
define internal void @process_launch_list(i32 noundef %0, i16 noundef signext %1, ptr noundef %2) #0 {
  %4 = alloca i32, align 4
  %5 = alloca i16, align 2
  %6 = alloca ptr, align 8
  %7 = alloca ptr, align 8
  %8 = alloca i32, align 4
  %9 = alloca ptr, align 8
  store i32 %0, ptr %4, align 4, !tbaa !18
  store i16 %1, ptr %5, align 2, !tbaa !108
  store ptr %2, ptr %6, align 8, !tbaa !45
  call void @llvm.lifetime.start.p0(i64 8, ptr %7) #13
  call void @llvm.lifetime.start.p0(i64 4, ptr %8) #13
  call void @llvm.lifetime.start.p0(i64 8, ptr %9) #13
  call void @pmix_atomic_rmb()
  br label %10

10:                                               ; preds = %111, %40, %3
  %11 = load i32, ptr @num_in_progress, align 4, !tbaa !18
  %12 = load i32, ptr getelementptr inbounds nuw (%struct.prte_mca_plm_ssh_component_t, ptr @prte_mca_plm_ssh_component, i32 0, i32 11), align 8, !tbaa !121
  %13 = icmp slt i32 %11, %12
  br i1 %13, label %14, label %112

14:                                               ; preds = %10
  %15 = call ptr @pmix_list_remove_first(ptr noundef @launch_list)
  store ptr %15, ptr %7, align 8, !tbaa !86
  %16 = load ptr, ptr %7, align 8, !tbaa !86
  %17 = icmp eq ptr null, %16
  br i1 %17, label %18, label %19

18:                                               ; preds = %14
  br label %112

19:                                               ; preds = %14
  %20 = load ptr, ptr %7, align 8, !tbaa !86
  store ptr %20, ptr %9, align 8, !tbaa !45
  %21 = load ptr, ptr %9, align 8, !tbaa !45
  %22 = getelementptr inbounds nuw %struct.prte_plm_ssh_caddy_t, ptr %21, i32 0, i32 3
  %23 = load ptr, ptr %22, align 8, !tbaa !77
  %24 = getelementptr inbounds nuw %struct.prte_proc_t, ptr %23, i32 0, i32 16
  %25 = load i16, ptr %24, align 8, !tbaa !146
  %26 = zext i16 %25 to i32
  %27 = or i32 %26, 1
  %28 = trunc i32 %27 to i16
  store i16 %28, ptr %24, align 8, !tbaa !146
  %29 = load ptr, ptr %9, align 8, !tbaa !45
  %30 = getelementptr inbounds nuw %struct.prte_plm_ssh_caddy_t, ptr %29, i32 0, i32 3
  %31 = load ptr, ptr %30, align 8, !tbaa !77
  %32 = load ptr, ptr %9, align 8, !tbaa !45
  call void @prte_wait_cb(ptr noundef %31, ptr noundef @ssh_wait_daemon, ptr noundef %32)
  %33 = call i32 @fork() #13
  store i32 %33, ptr %8, align 4, !tbaa !18
  %34 = load i32, ptr %8, align 4, !tbaa !18
  %35 = icmp slt i32 %34, 0
  br i1 %35, label %36, label %44

36:                                               ; preds = %19
  br label %37

37:                                               ; preds = %36
  %38 = call ptr @prte_strerror(i32 noundef 81)
  call void (i32, ptr, ...) @pmix_output(i32 noundef 0, ptr noundef @.str.6, ptr noundef %38, ptr noundef @.str.7, i32 noundef 937)
  br label %39

39:                                               ; preds = %37
  br label %40

40:                                               ; preds = %39
  %41 = load ptr, ptr %9, align 8, !tbaa !45
  %42 = getelementptr inbounds nuw %struct.prte_plm_ssh_caddy_t, ptr %41, i32 0, i32 3
  %43 = load ptr, ptr %42, align 8, !tbaa !77
  call void @prte_wait_cb_cancel(ptr noundef %43)
  br label %10, !llvm.loop !147

44:                                               ; preds = %19
  %45 = load i32, ptr %8, align 4, !tbaa !18
  %46 = icmp eq i32 %45, 0
  br i1 %46, label %47, label %63

47:                                               ; preds = %44
  %48 = call i32 @setpgid(i32 noundef 0, i32 noundef 0) #13
  %49 = icmp ne i32 0, %48
  br i1 %49, label %50, label %56

50:                                               ; preds = %47
  %51 = call ptr @__errno_location() #15
  %52 = load i32, ptr %51, align 4, !tbaa !18
  %53 = call ptr @strerror(i32 noundef %52) #13
  %54 = call ptr @__errno_location() #15
  %55 = load i32, ptr %54, align 4, !tbaa !18
  call void (i32, ptr, ...) @pmix_output(i32 noundef 0, ptr noundef @.str.92, ptr noundef %53, i32 noundef %55)
  call void @exit(i32 noundef -1) #14
  unreachable

56:                                               ; preds = %47
  %57 = load ptr, ptr %9, align 8, !tbaa !45
  %58 = getelementptr inbounds nuw %struct.prte_plm_ssh_caddy_t, ptr %57, i32 0, i32 1
  %59 = load i32, ptr %58, align 8, !tbaa !73
  %60 = load ptr, ptr %9, align 8, !tbaa !45
  %61 = getelementptr inbounds nuw %struct.prte_plm_ssh_caddy_t, ptr %60, i32 0, i32 2
  %62 = load ptr, ptr %61, align 8, !tbaa !76
  call void @ssh_child(i32 noundef %59, ptr noundef %62) #17
  unreachable

63:                                               ; preds = %44
  %64 = load i32, ptr %8, align 4, !tbaa !18
  %65 = load i32, ptr %8, align 4, !tbaa !18
  %66 = call i32 @setpgid(i32 noundef %64, i32 noundef %65) #13
  %67 = icmp ne i32 0, %66
  br i1 %67, label %68, label %78

68:                                               ; preds = %63
  %69 = load i32, ptr %8, align 4, !tbaa !18
  %70 = sext i32 %69 to i64
  %71 = load i32, ptr %8, align 4, !tbaa !18
  %72 = sext i32 %71 to i64
  %73 = call ptr @__errno_location() #15
  %74 = load i32, ptr %73, align 4, !tbaa !18
  %75 = call ptr @strerror(i32 noundef %74) #13
  %76 = call ptr @__errno_location() #15
  %77 = load i32, ptr %76, align 4, !tbaa !18
  call void (i32, ptr, ...) @pmix_output(i32 noundef 0, ptr noundef @.str.93, i64 noundef %70, i64 noundef %72, ptr noundef %75, i32 noundef %77)
  br label %78

78:                                               ; preds = %68, %63
  %79 = load ptr, ptr %9, align 8, !tbaa !45
  %80 = getelementptr inbounds nuw %struct.prte_plm_ssh_caddy_t, ptr %79, i32 0, i32 3
  %81 = load ptr, ptr %80, align 8, !tbaa !77
  %82 = getelementptr inbounds nuw %struct.prte_proc_t, ptr %81, i32 0, i32 9
  store i32 4, ptr %82, align 4, !tbaa !148
  %83 = load i32, ptr %8, align 4, !tbaa !18
  %84 = load ptr, ptr %9, align 8, !tbaa !45
  %85 = getelementptr inbounds nuw %struct.prte_plm_ssh_caddy_t, ptr %84, i32 0, i32 3
  %86 = load ptr, ptr %85, align 8, !tbaa !77
  %87 = getelementptr inbounds nuw %struct.prte_proc_t, ptr %86, i32 0, i32 3
  store i32 %83, ptr %87, align 8, !tbaa !96
  %88 = load i32, ptr getelementptr inbounds nuw (%struct.pmix_mca_base_framework_t, ptr @prte_plm_base_framework, i32 0, i32 11), align 4, !tbaa !19
  %89 = icmp sge i32 %88, 0
  br i1 %89, label %90, label %108

90:                                               ; preds = %78
  %91 = load i32, ptr getelementptr inbounds nuw (%struct.pmix_mca_base_framework_t, ptr @prte_plm_base_framework, i32 0, i32 11), align 4, !tbaa !19
  %92 = icmp slt i32 %91, 64
  br i1 %92, label %93, label %108

93:                                               ; preds = %90
  %94 = load i32, ptr getelementptr inbounds nuw (%struct.pmix_mca_base_framework_t, ptr @prte_plm_base_framework, i32 0, i32 11), align 4, !tbaa !19
  %95 = sext i32 %94 to i64
  %96 = getelementptr inbounds [0 x %struct.pmix_output_desc_t], ptr @pmix_output_info, i64 0, i64 %95
  %97 = getelementptr inbounds nuw %struct.pmix_output_desc_t, ptr %96, i32 0, i32 2
  %98 = load i32, ptr %97, align 4, !tbaa !29
  %99 = icmp sge i32 %98, 1
  br i1 %99, label %100, label %108

100:                                              ; preds = %93
  %101 = load i32, ptr getelementptr inbounds nuw (%struct.pmix_mca_base_framework_t, ptr @prte_plm_base_framework, i32 0, i32 11), align 4, !tbaa !19
  %102 = call ptr @prte_util_print_name_args(ptr noundef @prte_process_info)
  %103 = load ptr, ptr %9, align 8, !tbaa !45
  %104 = getelementptr inbounds nuw %struct.prte_plm_ssh_caddy_t, ptr %103, i32 0, i32 3
  %105 = load ptr, ptr %104, align 8, !tbaa !77
  %106 = getelementptr inbounds nuw %struct.prte_proc_t, ptr %105, i32 0, i32 1
  %107 = call ptr @prte_util_print_name_args(ptr noundef %106)
  call void (i32, ptr, ...) @pmix_output(i32 noundef %101, ptr noundef @.str.94, ptr noundef %102, ptr noundef %107)
  br label %108

108:                                              ; preds = %100, %93, %90, %78
  %109 = load i32, ptr @num_in_progress, align 4, !tbaa !18
  %110 = add nsw i32 %109, 1
  store i32 %110, ptr @num_in_progress, align 4, !tbaa !18
  br label %111

111:                                              ; preds = %108
  br label %10, !llvm.loop !147

112:                                              ; preds = %18, %10
  call void @llvm.lifetime.end.p0(i64 8, ptr %9) #13
  call void @llvm.lifetime.end.p0(i64 4, ptr %8) #13
  call void @llvm.lifetime.end.p0(i64 8, ptr %7) #13
  ret void
}