; Function Attrs: nounwind uwtable
define internal void @process_launch_list(i32 %0, i16 signext %1, ptr readnone captures(none) %2) #0 {
  fence acquire
  %4 = load i32, ptr @num_in_progress, align 4, !tbaa !34
  %5 = load i32, ptr getelementptr inbounds nuw (i8, ptr @prte_mca_plm_ssh_component, i64 256), align 8, !tbaa !114
  %6 = icmp slt i32 %4, %5
  br i1 %6, label %.lr.ph, label %pmix_list_remove_first.exit.thread

.lr.ph:                                           ; preds = %3, %.backedge
  %7 = load volatile i64, ptr getelementptr inbounds nuw (i8, ptr @launch_list, i64 264), align 8, !tbaa !66
  %8 = icmp eq i64 %7, 0
  br i1 %8, label %pmix_list_remove_first.exit.thread, label %9

9:                                                ; preds = %.lr.ph
  %10 = load volatile i64, ptr getelementptr inbounds nuw (i8, ptr @launch_list, i64 264), align 8, !tbaa !66
  %11 = add i64 %10, -1
  store volatile i64 %11, ptr getelementptr inbounds nuw (i8, ptr @launch_list, i64 264), align 8, !tbaa !66
  %12 = load ptr, ptr getelementptr inbounds nuw (i8, ptr @launch_list, i64 240), align 8, !tbaa !85
  %13 = getelementptr inbounds nuw i8, ptr %12, i64 128
  %14 = load volatile ptr, ptr %13, align 8, !tbaa !79
  %15 = getelementptr inbounds nuw i8, ptr %12, i64 120
  %16 = load volatile ptr, ptr %15, align 8, !tbaa !68
  %17 = getelementptr inbounds nuw i8, ptr %16, i64 128
  store volatile ptr %14, ptr %17, align 8, !tbaa !79
  %18 = load volatile ptr, ptr %15, align 8, !tbaa !68
  store ptr %18, ptr getelementptr inbounds nuw (i8, ptr @launch_list, i64 240), align 8, !tbaa !85
  %19 = getelementptr inbounds nuw i8, ptr %12, i64 160
  %20 = load ptr, ptr %19, align 8, !tbaa !78
  %21 = getelementptr inbounds nuw i8, ptr %20, i64 472
  %22 = load i16, ptr %21, align 8, !tbaa !130
  %23 = or i16 %22, 1
  store i16 %23, ptr %21, align 8, !tbaa !130
  tail call void @prte_wait_cb(ptr noundef %20, ptr noundef nonnull @ssh_wait_daemon, ptr noundef nonnull %12) #18
  %24 = tail call i32 @fork() #18
  %25 = icmp slt i32 %24, 0
  br i1 %25, label %26, label %32

26:                                               ; preds = %9
  %27 = tail call ptr @prte_strerror(i32 noundef 81) #18
  tail call void (i32, ptr, ...) @pmix_output(i32 noundef 0, ptr noundef nonnull @.str.6, ptr noundef %27, ptr noundef nonnull @.str.7, i32 noundef 937) #18
  %28 = load ptr, ptr %19, align 8, !tbaa !78
  tail call void @prte_wait_cb_cancel(ptr noundef %28) #18
  %.pre = load i32, ptr @num_in_progress, align 4, !tbaa !34
  br label %.backedge

.backedge:                                        ; preds = %26, %67
  %29 = phi i32 [ %.pre, %26 ], [ %69, %67 ]
  %30 = load i32, ptr getelementptr inbounds nuw (i8, ptr @prte_mca_plm_ssh_component, i64 256), align 8, !tbaa !114
  %31 = icmp slt i32 %29, %30
  br i1 %31, label %.lr.ph, label %pmix_list_remove_first.exit.thread, !llvm.loop !131

32:                                               ; preds = %9
  %33 = icmp eq i32 %24, 0
  br i1 %33, label %34, label %44

34:                                               ; preds = %32
  %35 = tail call i32 @setpgid(i32 noundef 0, i32 noundef 0) #18
  %.not20 = icmp eq i32 %35, 0
  br i1 %.not20, label %41, label %36

36:                                               ; preds = %34
  %37 = tail call ptr @__errno_location() #21
  %38 = load i32, ptr %37, align 4, !tbaa !34
  %39 = tail call ptr @strerror(i32 noundef %38) #18
  %40 = load i32, ptr %37, align 4, !tbaa !34
  tail call void (i32, ptr, ...) @pmix_output(i32 noundef 0, ptr noundef nonnull @.str.92, ptr noundef %39, i32 noundef %40) #18
  tail call void @exit(i32 noundef -1) #19
  unreachable

41:                                               ; preds = %34
  %42 = getelementptr inbounds nuw i8, ptr %12, i64 152
  %43 = load ptr, ptr %42, align 8, !tbaa !77
  tail call fastcc void @ssh_child(ptr noundef %43) #25
  unreachable

44:                                               ; preds = %32
  %45 = tail call i32 @setpgid(i32 noundef %24, i32 noundef %24) #18
  %.not = icmp eq i32 %45, 0
  br i1 %.not, label %52, label %46

46:                                               ; preds = %44
  %47 = zext nneg i32 %24 to i64
  %48 = tail call ptr @__errno_location() #21
  %49 = load i32, ptr %48, align 4, !tbaa !34
  %50 = tail call ptr @strerror(i32 noundef %49) #18
  %51 = load i32, ptr %48, align 4, !tbaa !34
  tail call void (i32, ptr, ...) @pmix_output(i32 noundef 0, ptr noundef nonnull @.str.93, i64 noundef %47, i64 noundef %47, ptr noundef %50, i32 noundef %51) #18
  br label %52

52:                                               ; preds = %46, %44
  %53 = load ptr, ptr %19, align 8, !tbaa !78
  %54 = getelementptr inbounds nuw i8, ptr %53, i64 428
  store i32 4, ptr %54, align 4, !tbaa !132
  %55 = getelementptr inbounds nuw i8, ptr %53, i64 408
  store i32 %24, ptr %55, align 8, !tbaa !96
  %56 = load i32, ptr getelementptr inbounds nuw (i8, ptr @prte_plm_base_framework, i64 76), align 4, !tbaa !18
  %or.cond = icmp ult i32 %56, 64
  br i1 %or.cond, label %57, label %67

57:                                               ; preds = %52
  %58 = zext nneg i32 %56 to i64
  %59 = getelementptr inbounds nuw [0 x %struct.pmix_output_desc_t], ptr @pmix_output_info, i64 0, i64 %58, i32 2
  %60 = load i32, ptr %59, align 4, !tbaa !28
  %61 = icmp sgt i32 %60, 0
  br i1 %61, label %62, label %67

62:                                               ; preds = %57
  %63 = tail call ptr @prte_util_print_name_args(ptr noundef nonnull @prte_process_info) #18
  %64 = load ptr, ptr %19, align 8, !tbaa !78
  %65 = getelementptr inbounds nuw i8, ptr %64, i64 144
  %66 = tail call ptr @prte_util_print_name_args(ptr noundef nonnull %65) #18
  tail call void (i32, ptr, ...) @pmix_output(i32 noundef %56, ptr noundef nonnull @.str.94, ptr noundef %63, ptr noundef %66) #18
  br label %67

67:                                               ; preds = %62, %57, %52
  %68 = load i32, ptr @num_in_progress, align 4, !tbaa !34
  %69 = add nsw i32 %68, 1
  store i32 %69, ptr @num_in_progress, align 4, !tbaa !34
  br label %.backedge

pmix_list_remove_first.exit.thread:               ; preds = %.backedge, %.lr.ph, %3
  ret void
}